; Function Attrs: mustprogress uwtable
define hidden noundef zeroext i1 @_ZN4lean20is_num_leaf_constantERKNS_4nameE(ptr noundef nonnull readonly align 8 captures(none) dereferenceable(8) %0) local_unnamed_addr #0 {
  %2 = tail call noundef nonnull align 8 dereferenceable(8) ptr @_ZN4lean22get_has_zero_zero_nameEv()
  %3 = load ptr, ptr %0, align 8, !tbaa !3
  %4 = load ptr, ptr %2, align 8, !tbaa !3
  %5 = tail call zeroext i8 @lean_name_eq(ptr noundef %3, ptr noundef %4)
  %.not = icmp eq i8 %5, 0
  br i1 %.not, label %6, label %12

6:                                                ; preds = %1
  %7 = tail call noundef nonnull align 8 dereferenceable(8) ptr @_ZN4lean20get_has_one_one_nameEv()
  %8 = load ptr, ptr %0, align 8, !tbaa !3
  %9 = load ptr, ptr %7, align 8, !tbaa !3
  %10 = tail call zeroext i8 @lean_name_eq(ptr noundef %8, ptr noundef %9)
  %11 = icmp ne i8 %10, 0
  br label %12

12:                                               ; preds = %6, %1
  %13 = phi i1 [ true, %1 ], [ %11, %6 ]
  ret i1 %13
}